target datalayout = "e-m:e-p270:32:32-p271:32:32-p272:64:64-i64:64-i128:128-f80:128-n8:16:32:64-S128"
target triple = "x86_64-pc-linux-gnu"

@hf_gryphon_reserved = internal global i32 0, align 4
@hf_gryphon_modresp_handle = internal global i32 0, align 4
@hf_gryphon_modresp_action = internal global i32 0, align 4
@.str.1046 = private unnamed_addr constant [36 x i8] c"Response handles: all on channel %c\00", align 1
@.str.1047 = private unnamed_addr constant [22 x i8] c"Response handles: all\00", align 1

; Function Attrs: null_pointer_is_valid sspstrong uwtable
define internal i32 @cmd_modresp(ptr noundef %0, i32 noundef %1, ptr noundef %2) #0 {
  %4 = alloca ptr, align 8
  %5 = alloca i32, align 4
  %6 = alloca ptr, align 8
  %7 = alloca i8, align 1
  %8 = alloca i8, align 1
  store ptr %0, ptr %4, align 8
  store i32 %1, ptr %5, align 4
  store ptr %2, ptr %6, align 8
  call void @llvm.lifetime.start.p0(i64 1, ptr %7) #7
  %9 = load ptr, ptr %4, align 8
  %10 = load i32, ptr %5, align 4
  %11 = sub i32 %10, 5
  %12 = call zeroext i8 @tvb_get_uint8(ptr noundef %9, i32 noundef %11)
  store i8 %12, ptr %7, align 1
  call void @llvm.lifetime.start.p0(i64 1, ptr %8) #7
  %13 = load ptr, ptr %4, align 8
  %14 = load i32, ptr %5, align 4
  %15 = call zeroext i8 @tvb_get_uint8(ptr noundef %13, i32 noundef %14)
  store i8 %15, ptr %8, align 1
  %16 = load i8, ptr %8, align 1
  %17 = icmp ne i8 %16, 0
  br i1 %17, label %18, label %24

18:                                               ; preds = %3
  %19 = load ptr, ptr %6, align 8
  %20 = load i32, ptr @hf_gryphon_modresp_handle, align 4
  %21 = load ptr, ptr %4, align 8
  %22 = load i32, ptr %5, align 4
  %23 = call ptr @proto_tree_add_item(ptr noundef %19, i32 noundef %20, ptr noundef %21, i32 noundef %22, i32 noundef 1, i32 noundef 0)
  br label %44

24:                                               ; preds = %3
  %25 = load i8, ptr %7, align 1
  %26 = icmp ne i8 %25, 0
  br i1 %26, label %27, label %37

27:                                               ; preds = %24
  %28 = load ptr, ptr %6, align 8
  %29 = load i32, ptr @hf_gryphon_modresp_handle, align 4
  %30 = load ptr, ptr %4, align 8
  %31 = load i32, ptr %5, align 4
  %32 = load i8, ptr %7, align 1
  %33 = zext i8 %32 to i32
  %34 = load i8, ptr %7, align 1
  %35 = zext i8 %34 to i32
  %36 = call ptr (ptr, i32, ptr, i32, i32, i32, ptr, ...) @proto_tree_add_uint_format_value(ptr noundef %28, i32 noundef %29, ptr noundef %30, i32 noundef %31, i32 noundef 1, i32 noundef %33, ptr noundef @.str.1046, i32 noundef %35)
  br label %43

37:                                               ; preds = %24
  %38 = load ptr, ptr %6, align 8
  %39 = load i32, ptr @hf_gryphon_modresp_handle, align 4
  %40 = load ptr, ptr %4, align 8
  %41 = load i32, ptr %5, align 4
  %42 = call ptr (ptr, i32, ptr, i32, i32, i32, ptr, ...) @proto_tree_add_uint_format_value(ptr noundef %38, i32 noundef %39, ptr noundef %40, i32 noundef %41, i32 noundef 1, i32 noundef 0, ptr noundef @.str.1047)
  br label %43

43:                                               ; preds = %37, %27
  br label %44

44:                                               ; preds = %43, %18
  %45 = load ptr, ptr %6, align 8
  %46 = load i32, ptr @hf_gryphon_modresp_action, align 4
  %47 = load ptr, ptr %4, align 8
  %48 = load i32, ptr %5, align 4
  %49 = add i32 %48, 1
  %50 = call ptr @proto_tree_add_item(ptr noundef %45, i32 noundef %46, ptr noundef %47, i32 noundef %49, i32 noundef 1, i32 noundef 0)
  %51 = load ptr, ptr %6, align 8
  %52 = load i32, ptr @hf_gryphon_reserved, align 4
  %53 = load ptr, ptr %4, align 8
  %54 = load i32, ptr %5, align 4
  %55 = add i32 %54, 2
  %56 = call ptr @proto_tree_add_item(ptr noundef %51, i32 noundef %52, ptr noundef %53, i32 noundef %55, i32 noundef 2, i32 noundef 0)
  %57 = load i32, ptr %5, align 4
  %58 = add i32 %57, 4
  store i32 %58, ptr %5, align 4
  %59 = load i32, ptr %5, align 4
  call void @llvm.lifetime.end.p0(i64 1, ptr %8) #7
  call void @llvm.lifetime.end.p0(i64 1, ptr %7) #7
  ret i32 %59
}