; Function Attrs: null_pointer_is_valid sspstrong uwtable
define internal fastcc void @cmd_modresp(ptr noundef %0, ptr noundef %1) unnamed_addr #0 {
  %3 = tail call zeroext i8 @tvb_get_uint8(ptr noundef %0, i32 noundef 7)
  %4 = tail call zeroext i8 @tvb_get_uint8(ptr noundef %0, i32 noundef 12)
  %.not = icmp eq i8 %4, 0
  br i1 %.not, label %8, label %5

5:                                                ; preds = %2
  %6 = load i32, ptr @hf_gryphon_modresp_handle, align 4
  %7 = tail call ptr @proto_tree_add_item(ptr noundef %1, i32 noundef %6, ptr noundef %0, i32 noundef 12, i32 noundef 1, i32 noundef 0)
  br label %15

8:                                                ; preds = %2
  %.not24 = icmp eq i8 %3, 0
  %9 = load i32, ptr @hf_gryphon_modresp_handle, align 4
  br i1 %.not24, label %13, label %10

10:                                               ; preds = %8
  %11 = zext i8 %3 to i32
  %12 = tail call ptr (ptr, i32, ptr, i32, i32, i32, ptr, ...) @proto_tree_add_uint_format_value(ptr noundef %1, i32 noundef %9, ptr noundef %0, i32 noundef 12, i32 noundef 1, i32 noundef %11, ptr noundef nonnull @.str.1046, i32 noundef %11)
  br label %15

13:                                               ; preds = %8
  %14 = tail call ptr (ptr, i32, ptr, i32, i32, i32, ptr, ...) @proto_tree_add_uint_format_value(ptr noundef %1, i32 noundef %9, ptr noundef %0, i32 noundef 12, i32 noundef 1, i32 noundef 0, ptr noundef nonnull @.str.1047)
  br label %15

15:                                               ; preds = %10, %13, %5
  %16 = load i32, ptr @hf_gryphon_modresp_action, align 4
  %17 = tail call ptr @proto_tree_add_item(ptr noundef %1, i32 noundef %16, ptr noundef %0, i32 noundef 13, i32 noundef 1, i32 noundef 0)
  %18 = load i32, ptr @hf_gryphon_reserved, align 4
  %19 = tail call ptr @proto_tree_add_item(ptr noundef %1, i32 noundef %18, ptr noundef %0, i32 noundef 14, i32 noundef 2, i32 noundef 0)
  ret void
}